target datalayout = "e-m:e-p270:32:32-p271:32:32-p272:64:64-i64:64-i128:128-f80:128-n8:16:32:64-S128"
target triple = "x86_64-pc-linux-gnu"

%struct.uv_pipe_s = type { ptr, ptr, i32, ptr, %struct.uv__queue, %union.anon, ptr, i32, i64, ptr, ptr, ptr, ptr, %struct.uv__io_s, %struct.uv__queue, %struct.uv__queue, ptr, i32, i32, ptr, i32, ptr }
%union.anon = type { [4 x ptr] }
%struct.uv__io_s = type { ptr, %struct.uv__queue, %struct.uv__queue, i32, i32, i32 }
%struct.uv__queue = type { ptr, ptr }

; Function Attrs: nounwind uwtable
define hidden i32 @uv__pipe_listen(ptr noundef %0, i32 noundef %1, ptr noundef %2) #0 {
  %4 = alloca i32, align 4
  %5 = alloca ptr, align 8
  %6 = alloca i32, align 4
  %7 = alloca ptr, align 8
  store ptr %0, ptr %5, align 8
  store i32 %1, ptr %6, align 4
  store ptr %2, ptr %7, align 8
  %8 = load ptr, ptr %5, align 8
  %9 = getelementptr inbounds nuw %struct.uv_pipe_s, ptr %8, i32 0, i32 13
  %10 = getelementptr inbounds nuw %struct.uv__io_s, ptr %9, i32 0, i32 5
  %11 = load i32, ptr %10, align 8
  %12 = icmp eq i32 %11, -1
  br i1 %12, label %13, label %14

13:                                               ; preds = %3
  store i32 -22, ptr %4, align 4
  br label %44

14:                                               ; preds = %3
  %15 = load ptr, ptr %5, align 8
  %16 = getelementptr inbounds nuw %struct.uv_pipe_s, ptr %15, i32 0, i32 20
  %17 = load i32, ptr %16, align 8
  %18 = icmp ne i32 %17, 0
  br i1 %18, label %19, label %20

19:                                               ; preds = %14
  store i32 -22, ptr %4, align 4
  br label %44

20:                                               ; preds = %14
  %21 = load ptr, ptr %5, align 8
  %22 = getelementptr inbounds nuw %struct.uv_pipe_s, ptr %21, i32 0, i32 13
  %23 = getelementptr inbounds nuw %struct.uv__io_s, ptr %22, i32 0, i32 5
  %24 = load i32, ptr %23, align 8
  %25 = load i32, ptr %6, align 4
  %26 = call i32 @listen(i32 noundef %24, i32 noundef %25) #10
  %27 = icmp ne i32 %26, 0
  br i1 %27, label %28, label %32

28:                                               ; preds = %20
  %29 = call ptr @__errno_location() #11
  %30 = load i32, ptr %29, align 4
  %31 = sub nsw i32 0, %30
  store i32 %31, ptr %4, align 4
  br label %44

32:                                               ; preds = %20
  %33 = load ptr, ptr %7, align 8
  %34 = load ptr, ptr %5, align 8
  %35 = getelementptr inbounds nuw %struct.uv_pipe_s, ptr %34, i32 0, i32 16
  store ptr %33, ptr %35, align 8
  %36 = load ptr, ptr %5, align 8
  %37 = getelementptr inbounds nuw %struct.uv_pipe_s, ptr %36, i32 0, i32 13
  %38 = getelementptr inbounds nuw %struct.uv__io_s, ptr %37, i32 0, i32 0
  store ptr @uv__server_io, ptr %38, align 8
  %39 = load ptr, ptr %5, align 8
  %40 = getelementptr inbounds nuw %struct.uv_pipe_s, ptr %39, i32 0, i32 1
  %41 = load ptr, ptr %40, align 8
  %42 = load ptr, ptr %5, align 8
  %43 = getelementptr inbounds nuw %struct.uv_pipe_s, ptr %42, i32 0, i32 13
  call void @uv__io_start(ptr noundef %41, ptr noundef %43, i32 noundef 1)
  store i32 0, ptr %4, align 4
  br label %44

44:                                               ; preds = %32, %28, %19, %13
  %45 = load i32, ptr %4, align 4
  ret i32 %45
}