; Function Attrs: nounwind uwtable
define hidden range(i32 -2147483647, -2147483648) i32 @uv__pipe_listen(ptr noundef %0, i32 noundef %1, ptr noundef %2) local_unnamed_addr #0 {
  %4 = getelementptr inbounds nuw i8, ptr %0, i64 136
  %5 = getelementptr inbounds nuw i8, ptr %0, i64 184
  %6 = load i32, ptr %5, align 8
  %7 = icmp eq i32 %6, -1
  br i1 %7, label %21, label %8

8:                                                ; preds = %3
  %9 = getelementptr inbounds nuw i8, ptr %0, i64 248
  %10 = load i32, ptr %9, align 8
  %.not = icmp eq i32 %10, 0
  br i1 %.not, label %11, label %21

11:                                               ; preds = %8
  %12 = tail call i32 @listen(i32 noundef %6, i32 noundef %1) #12
  %.not10 = icmp eq i32 %12, 0
  br i1 %.not10, label %17, label %13

13:                                               ; preds = %11
  %14 = tail call ptr @__errno_location() #14
  %15 = load i32, ptr %14, align 4
  %16 = sub nsw i32 0, %15
  br label %21

17:                                               ; preds = %11
  %18 = getelementptr inbounds nuw i8, ptr %0, i64 224
  store ptr %2, ptr %18, align 8
  store ptr @uv__server_io, ptr %4, align 8
  %19 = getelementptr inbounds nuw i8, ptr %0, i64 8
  %20 = load ptr, ptr %19, align 8
  tail call void @uv__io_start(ptr noundef %20, ptr noundef nonnull %4, i32 noundef 1) #12
  br label %21

21:                                               ; preds = %8, %3, %17, %13
  %.0 = phi i32 [ %16, %13 ], [ 0, %17 ], [ -22, %3 ], [ -22, %8 ]
  ret i32 %.0
}